target datalayout = "e-m:e-p270:32:32-p271:32:32-p272:64:64-i64:64-i128:128-f80:128-n8:16:32:64-S128"
target triple = "x86_64-pc-linux-gnu"

%struct.RelationData = type { %struct.RelFileLocator, ptr, i32, i32, i8, i8, i8, i8, i8, i32, i32, i32, i32, ptr, ptr, i32, %struct.LockInfoData, ptr, ptr, ptr, ptr, ptr, i8, ptr, ptr, ptr, ptr, ptr, ptr, i32, ptr, i8, ptr, ptr, i32, i8, i32, ptr, i8, ptr, ptr, ptr, ptr, ptr, ptr, ptr, i32, ptr, ptr, ptr, ptr, ptr, ptr, ptr, ptr, ptr, ptr, ptr, ptr, ptr, ptr, ptr, ptr, ptr, ptr, ptr, i32, i8, ptr }
%struct.RelFileLocator = type { i32, i32, i32 }
%struct.LockInfoData = type { %struct.LockRelId }
%struct.LockRelId = type { i32, i32 }
%struct.FormData_pg_index = type { i32, i32, i16, i16, i8, i8, i8, i8, i8, i8, i8, i8, i8, i8, i8, %struct.int2vector }
%struct.int2vector = type { i32, i32, i32, i32, i32, i32, [0 x i16] }
%struct.ForEachState = type { ptr, i32 }
%struct.List = type { i32, i32, i32, ptr, [0 x %union.ListCell] }
%union.ListCell = type { ptr }

@.str.1 = private unnamed_addr constant [18 x i8] c"toast_internals.c\00", align 1
@.str.2 = private unnamed_addr constant [52 x i8] c"no valid index found for toast relation with Oid %u\00", align 1
@__func__.toast_open_indexes = private unnamed_addr constant [19 x i8] c"toast_open_indexes\00", align 1

; Function Attrs: inlinehint nounwind uwtable
define internal i32 @list_length(ptr noundef %0) #2 {
  %2 = alloca ptr, align 8
  store ptr %0, ptr %2, align 8
  %3 = load ptr, ptr %2, align 8
  %4 = icmp ne ptr %3, null
  br i1 %4, label %5, label %9

5:                                                ; preds = %1
  %6 = load ptr, ptr %2, align 8
  %7 = getelementptr inbounds nuw %struct.List, ptr %6, i32 0, i32 1
  %8 = load i32, ptr %7, align 4
  br label %10

9:                                                ; preds = %1
  br label %10

10:                                               ; preds = %9, %5
  %11 = phi i32 [ %8, %5 ], [ 0, %9 ]
  ret i32 %11
}

; Function Attrs: nounwind uwtable
define dso_local i32 @toast_open_indexes(ptr noundef %0, i32 noundef %1, ptr noundef %2, ptr noundef %3) #0 {
  %5 = alloca ptr, align 8
  %6 = alloca i32, align 4
  %7 = alloca ptr, align 8
  %8 = alloca ptr, align 8
  %9 = alloca i32, align 4
  %10 = alloca i32, align 4
  %11 = alloca i8, align 1
  %12 = alloca ptr, align 8
  %13 = alloca ptr, align 8
  %14 = alloca %struct.ForEachState, align 8
  %15 = alloca ptr, align 8
  %16 = alloca i32, align 4
  store ptr %0, ptr %5, align 8
  store i32 %1, ptr %6, align 4
  store ptr %2, ptr %7, align 8
  store ptr %3, ptr %8, align 8
  call void @llvm.lifetime.start.p0(i64 4, ptr %9) #8
  store i32 0, ptr %9, align 4
  call void @llvm.lifetime.start.p0(i64 4, ptr %10) #8
  store i32 0, ptr %10, align 4
  call void @llvm.lifetime.start.p0(i64 1, ptr %11) #8
  store i8 0, ptr %11, align 1
  call void @llvm.lifetime.start.p0(i64 8, ptr %12) #8
  call void @llvm.lifetime.start.p0(i64 8, ptr %13) #8
  %17 = load ptr, ptr %5, align 8
  %18 = call ptr @RelationGetIndexList(ptr noundef %17)
  store ptr %18, ptr %12, align 8
  %19 = load ptr, ptr %12, align 8
  %20 = call i32 @list_length(ptr noundef %19)
  %21 = load ptr, ptr %8, align 8
  store i32 %20, ptr %21, align 4
  %22 = load ptr, ptr %8, align 8
  %23 = load i32, ptr %22, align 4
  %24 = sext i32 %23 to i64
  %25 = mul i64 %24, 8
  %26 = call ptr @palloc(i64 noundef %25)
  %27 = load ptr, ptr %7, align 8
  store ptr %26, ptr %27, align 8
  call void @llvm.lifetime.start.p0(i64 16, ptr %14) #8
  %28 = getelementptr inbounds nuw %struct.ForEachState, ptr %14, i32 0, i32 0
  %29 = load ptr, ptr %12, align 8
  store ptr %29, ptr %28, align 8
  %30 = getelementptr inbounds nuw %struct.ForEachState, ptr %14, i32 0, i32 1
  store i32 0, ptr %30, align 8
  %31 = getelementptr i8, ptr %14, i64 12
  call void @llvm.memset.p0.i64(ptr align 4 %31, i8 0, i64 4, i1 false)
  br label %32

32:                                               ; preds = %69, %4
  %33 = getelementptr inbounds nuw %struct.ForEachState, ptr %14, i32 0, i32 0
  %34 = load ptr, ptr %33, align 8
  %35 = icmp ne ptr %34, null
  br i1 %35, label %36, label %53

36:                                               ; preds = %32
  %37 = getelementptr inbounds nuw %struct.ForEachState, ptr %14, i32 0, i32 1
  %38 = load i32, ptr %37, align 8
  %39 = getelementptr inbounds nuw %struct.ForEachState, ptr %14, i32 0, i32 0
  %40 = load ptr, ptr %39, align 8
  %41 = getelementptr inbounds nuw %struct.List, ptr %40, i32 0, i32 1
  %42 = load i32, ptr %41, align 4
  %43 = icmp slt i32 %38, %42
  br i1 %43, label %44, label %53

44:                                               ; preds = %36
  %45 = getelementptr inbounds nuw %struct.ForEachState, ptr %14, i32 0, i32 0
  %46 = load ptr, ptr %45, align 8
  %47 = getelementptr inbounds nuw %struct.List, ptr %46, i32 0, i32 3
  %48 = load ptr, ptr %47, align 8
  %49 = getelementptr inbounds nuw %struct.ForEachState, ptr %14, i32 0, i32 1
  %50 = load i32, ptr %49, align 8
  %51 = sext i32 %50 to i64
  %52 = getelementptr inbounds %union.ListCell, ptr %48, i64 %51
  store ptr %52, ptr %13, align 8
  br label %54

53:                                               ; preds = %36, %32
  store ptr null, ptr %13, align 8
  br label %54

54:                                               ; preds = %53, %44
  %55 = phi i32 [ 1, %44 ], [ 0, %53 ]
  %56 = icmp ne i32 %55, 0
  br i1 %56, label %58, label %57

57:                                               ; preds = %54
  call void @llvm.lifetime.end.p0(i64 16, ptr %14) #8
  br label %73

58:                                               ; preds = %54
  %59 = load ptr, ptr %13, align 8
  %60 = load i32, ptr %59, align 8
  %61 = load i32, ptr %6, align 4
  %62 = call ptr @index_open(i32 noundef %60, i32 noundef %61)
  %63 = load ptr, ptr %7, align 8
  %64 = load ptr, ptr %63, align 8
  %65 = load i32, ptr %9, align 4
  %66 = add i32 %65, 1
  store i32 %66, ptr %9, align 4
  %67 = sext i32 %65 to i64
  %68 = getelementptr inbounds ptr, ptr %64, i64 %67
  store ptr %62, ptr %68, align 8
  br label %69

69:                                               ; preds = %58
  %70 = getelementptr inbounds nuw %struct.ForEachState, ptr %14, i32 0, i32 1
  %71 = load i32, ptr %70, align 8
  %72 = add i32 %71, 1
  store i32 %72, ptr %70, align 8
  br label %32, !llvm.loop !10

73:                                               ; preds = %57
  store i32 0, ptr %9, align 4
  br label %74

74:                                               ; preds = %98, %73
  %75 = load i32, ptr %9, align 4
  %76 = load ptr, ptr %8, align 8
  %77 = load i32, ptr %76, align 4
  %78 = icmp slt i32 %75, %77
  br i1 %78, label %79, label %101

79:                                               ; preds = %74
  call void @llvm.lifetime.start.p0(i64 8, ptr %15) #8
  %80 = load ptr, ptr %7, align 8
  %81 = load ptr, ptr %80, align 8
  %82 = load i32, ptr %9, align 4
  %83 = sext i32 %82 to i64
  %84 = getelementptr inbounds ptr, ptr %81, i64 %83
  %85 = load ptr, ptr %84, align 8
  store ptr %85, ptr %15, align 8
  %86 = load ptr, ptr %15, align 8
  %87 = getelementptr inbounds nuw %struct.RelationData, ptr %86, i32 0, i32 48
  %88 = load ptr, ptr %87, align 8
  %89 = getelementptr inbounds nuw %struct.FormData_pg_index, ptr %88, i32 0, i32 10
  %90 = load i8, ptr %89, align 2, !range !6, !noundef !7
  %91 = trunc i8 %90 to i1
  br i1 %91, label %92, label %94

92:                                               ; preds = %79
  %93 = load i32, ptr %9, align 4
  store i32 %93, ptr %10, align 4
  store i8 1, ptr %11, align 1
  store i32 5, ptr %16, align 4
  br label %95

94:                                               ; preds = %79
  store i32 0, ptr %16, align 4
  br label %95

95:                                               ; preds = %94, %92
  call void @llvm.lifetime.end.p0(i64 8, ptr %15) #8
  %96 = load i32, ptr %16, align 4
  switch i32 %96, label %121 [
    i32 0, label %97
    i32 5, label %101
  ]

97:                                               ; preds = %95
  br label %98

98:                                               ; preds = %97
  %99 = load i32, ptr %9, align 4
  %100 = add i32 %99, 1
  store i32 %100, ptr %9, align 4
  br label %74, !llvm.loop !11

101:                                              ; preds = %95, %74
  %102 = load ptr, ptr %12, align 8
  call void @list_free(ptr noundef %102)
  %103 = load i8, ptr %11, align 1, !range !6, !noundef !7
  %104 = trunc i8 %103 to i1
  br i1 %104, label %119, label %105

105:                                              ; preds = %101
  br label %106

106:                                              ; preds = %105
  br i1 true, label %107, label %109

107:                                              ; preds = %106
  %108 = call zeroext i1 @errstart_cold(i32 noundef 21, ptr noundef null) #9
  br i1 %108, label %111, label %116

109:                                              ; preds = %106
  %110 = call zeroext i1 @errstart(i32 noundef 21, ptr noundef null)
  br i1 %110, label %111, label %116

111:                                              ; preds = %109, %107
  %112 = load ptr, ptr %5, align 8
  %113 = getelementptr inbounds nuw %struct.RelationData, ptr %112, i32 0, i32 15
  %114 = load i32, ptr %113, align 8
  %115 = call i32 (ptr, ...) @errmsg_internal(ptr noundef @.str.2, i32 noundef %114)
  call void @errfinish(ptr noundef @.str.1, i32 noundef 609, ptr noundef @__func__.toast_open_indexes)
  br label %116

116:                                              ; preds = %111, %109, %107
  unreachable

117:                                              ; No predecessors!
  br label %118

118:                                              ; preds = %117
  br label %119

119:                                              ; preds = %118, %101
  %120 = load i32, ptr %10, align 4
  store i32 1, ptr %16, align 4
  call void @llvm.lifetime.end.p0(i64 8, ptr %13) #8
  call void @llvm.lifetime.end.p0(i64 8, ptr %12) #8
  call void @llvm.lifetime.end.p0(i64 1, ptr %11) #8
  call void @llvm.lifetime.end.p0(i64 4, ptr %10) #8
  call void @llvm.lifetime.end.p0(i64 4, ptr %9) #8
  ret i32 %120

121:                                              ; preds = %95
  unreachable
}